Certificate:
    Data:
        Version: 3 (0x2)
        Serial Number: 4179 (0x1053)
    Signature Algorithm: sha256WithRSAEncryption
        Issuer: C=QA, ST=Doha, L=Doha, O=Communications Regulatory Authority, OU=Qatar Domains Registry, CN=.qa OTE EPP CA/emailAddress=support@registry.qa
        Validity
            Not Before: Apr 18 11:35:40 2019 GMT
            Not After : Apr 15 11:35:40 2029 GMT
        Subject: C=QA, ST=Doha, L=Doha, O=Communications Regulatory Authority, OU=Qatar Domains Registry, CN=qdr_epp
        Subject Public Key Info:
            Public Key Algorithm: rsaEncryption
                Public-Key: (2048 bit)
                Modulus:
                    00:b0:32:d3:05:d1:a5:7f:23:76:52:c9:02:83:6b:
                    2f:10:fb:3b:21:c9:77:84:c9:56:fc:b7:3a:e5:08:
                    72:ab:7a:4a:17:97:41:14:c7:13:c2:12:a9:58:53:
                    69:56:4c:b1:08:ad:02:54:f5:fb:e2:a0:41:c3:dc:
                    e8:25:f4:34:cb:51:82:ba:22:36:8d:df:66:23:95:
                    38:01:b7:cc:70:5e:cf:af:92:de:85:7f:01:7f:41:
                    a5:30:d4:61:91:97:90:0f:55:34:15:ca:aa:cd:10:
                    26:a1:a9:d4:ee:97:8a:ef:db:0d:91:36:ed:16:a4:
                    ea:e8:1a:e8:96:25:1d:ff:86:ef:d9:05:e5:a4:65:
                    b9:fd:52:61:47:b7:11:62:aa:47:ce:da:dd:22:9f:
                    21:1f:ac:2d:2f:1a:ec:9a:34:c8:52:12:27:d9:01:
                    98:f4:5e:5f:f4:cf:91:6e:61:28:a9:1a:48:6a:ed:
                    f0:f4:98:19:b4:5a:2a:54:fa:a2:b5:7a:f6:6f:6d:
                    3b:95:6b:ba:05:49:72:1d:f2:6e:b3:5b:26:4e:87:
                    9f:52:cb:26:ab:3c:18:f1:12:d4:dc:d6:83:ee:83:
                    3d:c1:08:ff:0e:07:6d:a3:64:58:a2:d2:61:d3:29:
                    ca:dc:2d:0d:7a:2d:5a:fe:c0:9c:85:6b:75:7f:37:
                    46:79
                Exponent: 65537 (0x10001)
        X509v3 extensions:
            X509v3 Basic Constraints: 
                CA:FALSE
            Netscape Comment: 
                OpenSSL Generated Certificate
            X509v3 Subject Key Identifier: 
                90:48:79:2F:3F:88:45:2F:12:F3:B1:E2:D9:AD:23:F8:7F:FF:22:6D
            X509v3 Authority Key Identifier: 
                keyid:24:23:41:A9:8C:BD:02:23:D6:16:1E:A9:AA:D4:EF:B3:32:B5:50:BE

    Signature Algorithm: sha256WithRSAEncryption
         c6:04:47:f2:b1:ad:66:9d:b5:4a:bb:fd:af:07:c8:7e:da:17:
         b7:fe:c2:ae:a8:99:98:5c:e4:fe:23:bf:4d:21:22:d3:7a:17:
         58:59:b1:58:84:fb:cd:3a:89:42:16:0f:e9:eb:ac:75:f7:b5:
         ee:ff:07:1c:57:ff:99:1e:de:b1:20:03:0e:79:3e:ae:37:04:
         f6:74:7f:21:1f:fa:11:37:19:20:12:bf:60:75:77:37:55:a9:
         57:1a:91:2e:4b:5f:53:a7:f4:b6:ee:35:6e:f3:b4:4b:87:c8:
         9c:4e:8a:7a:60:ec:9e:75:ad:af:36:09:d5:e3:35:90:8a:ef:
         57:29
-----BEGIN CERTIFICATE-----
MIIDuzCCAySgAwIBAgICEFMwDQYJKoZIhvcNAQELBQAwgbcxCzAJBgNVBAYTAlFB
MQ0wCwYDVQQIDAREb2hhMQ0wCwYDVQQHDAREb2hhMSwwKgYDVQQKDCNDb21tdW5p
Y2F0aW9ucyBSZWd1bGF0b3J5IEF1dGhvcml0eTEfMB0GA1UECwwWUWF0YXIgRG9t
YWlucyBSZWdpc3RyeTEXMBUGA1UEAwwOLnFhIE9URSBFUFAgQ0ExIjAgBgkqhkiG
9w0BCQEWE3N1cHBvcnRAcmVnaXN0cnkucWEwHhcNMTkwNDE4MTEzNTQwWhcNMjkw
NDE1MTEzNTQwWjCBjDELMAkGA1UEBhMCUUExDTALBgNVBAgTBERvaGExDTALBgNV
BAcTBERvaGExLDAqBgNVBAoTI0NvbW11bmljYXRpb25zIFJlZ3VsYXRvcnkgQXV0
aG9yaXR5MR8wHQYDVQQLExZRYXRhciBEb21haW5zIFJlZ2lzdHJ5MRAwDgYDVQQD
DAdxZHJfZXBwMIIBIjANBgkqhkiG9w0BAQEFAAOCAQ8AMIIBCgKCAQEAsDLTBdGl
fyN2UskCg2svEPs7Icl3hMlW/Lc65Qhyq3pKF5dBFMcTwhKpWFNpVkyxCK0CVPX7
4qBBw9zoJfQ0y1GCuiI2jd9mI5U4AbfMcF7Pr5LehX8Bf0GlMNRhkZeQD1U0Fcqq
zRAmoanU7peK79sNkTbtFqTq6BroliUd/4bv2QXlpGW5/VJhR7cRYqpHztrdIp8h
H6wtLxrsmjTIUhIn2QGY9F5f9M+RbmEoqRpIau3w9JgZtFoqVPqitXr2b207lWu6
BUlyHfJus1smToefUssmqzwY8RLU3NaD7oM9wQj/Dgdto2RYotJh0ynK3C0Nei1a
/sCchWt1fzdGeQIDAQABo3sweTAJBgNVHRMEAjAAMCwGCWCGSAGG+EIBDQQfFh1P
cGVuU1NMIEdlbmVyYXRlZCBDZXJ0aWZpY2F0ZTAdBgNVHQ4EFgQUkEh5Lz+IRS8S
87Hi2a0j+H//Im0wHwYDVR0jBBgwFoAUJCNBqYy9AiPWFh6pqtTvszK1UL4wDQYJ
KoZIhvcNAQELBQADgYEAxgRH8rGtZp21Srv9rwfIftoXt/7CrqiZmFzk/iO/TSEi
03oXWFmxWIT7zTqJQhYP6eusdfe17v8HHFf/mR7esSADDnk+rjcE9nR/IR/6ETcZ
IBK/YHV3N1WpVxqRLktfU6f0tu41bvO0S4fInE6KemDsnnWtrzYJ1eM1kIrvVyk=
-----END CERTIFICATE-----
