Certificate:
    Data:
        Version: 3 (0x2)
        Serial Number: 4176 (0x1050)
    Signature Algorithm: sha256WithRSAEncryption
        Issuer: C=QA, ST=Doha, L=Doha, O=Supreme Council of Information and Communication Technology, OU=Qatar Domains Registry , CN=.qa PROD EPP CA/emailAddress=info@domains.qa
        Validity
            Not Before: Apr 14 10:08:07 2019 GMT
            Not After : Apr 11 10:08:07 2029 GMT
        Subject: C=qa, ST=doha, L=doha, O=cra, OU=qdr, CN=qdr_epp
        Subject Public Key Info:
            Public Key Algorithm: rsaEncryption
                Public-Key: (2048 bit)
                Modulus:
                    00:b3:23:70:3a:3b:f9:ec:8b:98:2d:89:26:82:1a:
                    ed:fa:f7:fd:41:90:c4:ad:4e:32:c0:b7:52:1a:a9:
                    89:c8:07:ae:f0:47:07:7d:7b:49:5e:2f:25:67:ab:
                    36:5a:6c:5c:93:ec:a7:ee:b4:aa:30:ae:fd:04:ac:
                    4f:fe:8d:a3:52:1f:c4:2d:46:f9:01:6b:2e:e1:8c:
                    7b:7f:6b:d9:22:91:87:9c:09:26:fa:8f:ab:59:4d:
                    46:c8:55:3c:af:49:42:5a:58:64:0f:1e:36:1a:75:
                    80:8d:6b:d3:d7:c1:67:2f:9f:da:3c:74:01:3c:2b:
                    3c:f4:12:13:79:1e:5a:3b:d8:0a:26:71:ae:90:4a:
                    8d:18:0c:b0:e6:88:d5:cd:ad:cc:54:8e:18:6d:e9:
                    a3:67:5c:bd:fc:e2:a4:f8:99:39:e9:81:c7:6b:ba:
                    c5:38:6a:6c:9c:1d:a5:ed:aa:6f:51:e9:a1:c9:4e:
                    b3:f8:f3:3e:28:ff:5d:e2:da:f2:29:4c:9e:f2:27:
                    a8:97:6d:58:fd:20:31:48:ee:a3:ba:5d:07:3e:3d:
                    45:1a:67:1b:eb:f1:e4:e3:ea:a3:0c:b0:e9:7f:e8:
                    d6:7f:8c:d4:19:04:54:15:63:62:9c:1f:4a:cf:18:
                    48:85:af:2a:56:2c:89:de:ff:9f:62:dc:76:be:31:
                    b3:87
                Exponent: 65537 (0x10001)
        X509v3 extensions:
            X509v3 Basic Constraints: 
                CA:FALSE
            Netscape Comment: 
                OpenSSL Generated Certificate
            X509v3 Subject Key Identifier: 
                A3:09:52:89:CA:33:4E:EA:26:35:7E:92:D7:90:F4:B6:CE:67:C7:B5
            X509v3 Authority Key Identifier: 
                keyid:59:A0:57:56:2B:36:DC:07:D0:16:57:FC:39:49:4B:39:F5:51:D5:99

    Signature Algorithm: sha256WithRSAEncryption
         15:2e:fe:0a:ba:74:0d:f7:d4:59:aa:b4:8e:22:d8:98:3e:a3:
         da:13:04:f4:1d:30:3b:09:5b:7c:d7:e9:f1:5a:60:02:c6:03:
         90:0d:fd:35:22:54:a7:a9:41:a5:a9:58:d8:fe:b5:40:4b:09:
         e8:f8:83:23:c1:42:6f:61:f4:d4:2f:35:cf:bb:be:74:74:71:
         b8:8f:c4:42:2c:f7:9f:de:ba:bf:6e:67:d2:bd:89:9b:a7:f5:
         3a:68:54:09:36:ca:58:05:1f:25:f0:f3:41:8a:8a:f2:01:0e:
         bd:a5:d9:f7:80:a7:3b:53:06:33:28:7d:cd:fd:77:e4:b9:13:
         38:94
-----BEGIN CERTIFICATE-----
MIIDnTCCAwagAwIBAgICEFAwDQYJKoZIhvcNAQELBQAwgc0xCzAJBgNVBAYTAlFB
MQ0wCwYDVQQIEwREb2hhMQ0wCwYDVQQHEwREb2hhMUQwQgYDVQQKEztTdXByZW1l
IENvdW5jaWwgb2YgSW5mb3JtYXRpb24gYW5kIENvbW11bmljYXRpb24gVGVjaG5v
bG9neTEgMB4GA1UECxMXUWF0YXIgRG9tYWlucyBSZWdpc3RyeSAxGDAWBgNVBAMT
Dy5xYSBQUk9EIEVQUCBDQTEeMBwGCSqGSIb3DQEJARYPaW5mb0Bkb21haW5zLnFh
MB4XDTE5MDQxNDEwMDgwN1oXDTI5MDQxMTEwMDgwN1owWTELMAkGA1UEBhMCcWEx
DTALBgNVBAgTBGRvaGExDTALBgNVBAcTBGRvaGExDDAKBgNVBAoTA2NyYTEMMAoG
A1UECxMDcWRyMRAwDgYDVQQDDAdxZHJfZXBwMIIBIjANBgkqhkiG9w0BAQEFAAOC
AQ8AMIIBCgKCAQEAsyNwOjv57IuYLYkmghrt+vf9QZDErU4ywLdSGqmJyAeu8EcH
fXtJXi8lZ6s2Wmxck+yn7rSqMK79BKxP/o2jUh/ELUb5AWsu4Yx7f2vZIpGHnAkm
+o+rWU1GyFU8r0lCWlhkDx42GnWAjWvT18FnL5/aPHQBPCs89BITeR5aO9gKJnGu
kEqNGAyw5ojVza3MVI4YbemjZ1y9/OKk+Jk56YHHa7rFOGpsnB2l7apvUemhyU6z
+PM+KP9d4tryKUye8ieol21Y/SAxSO6jul0HPj1FGmcb6/Hk4+qjDLDpf+jWf4zU
GQRUFWNinB9KzxhIha8qViyJ3v+fYtx2vjGzhwIDAQABo3sweTAJBgNVHRMEAjAA
MCwGCWCGSAGG+EIBDQQfFh1PcGVuU1NMIEdlbmVyYXRlZCBDZXJ0aWZpY2F0ZTAd
BgNVHQ4EFgQUowlSicozTuomNX6S15D0ts5nx7UwHwYDVR0jBBgwFoAUWaBXVis2
3AfQFlf8OUlLOfVR1ZkwDQYJKoZIhvcNAQELBQADgYEAFS7+Crp0DffUWaq0jiLY
mD6j2hME9B0wOwlbfNfp8VpgAsYDkA39NSJUp6lBpalY2P61QEsJ6PiDI8FCb2H0
1C81z7u+dHRxuI/EQiz3n966v25n0r2Jm6f1OmhUCTbKWAUfJfDzQYqK8gEOvaXZ
94CnO1MGMyh9zf135LkTOJQ=
-----END CERTIFICATE-----
-----BEGIN CERTIFICATE-----
MIIExzCCBDCgAwIBAgIJALRW+daOKBDzMA0GCSqGSIb3DQEBBQUAMIHNMQswCQYD
VQQGEwJRQTENMAsGA1UECBMERG9oYTENMAsGA1UEBxMERG9oYTFEMEIGA1UEChM7
U3VwcmVtZSBDb3VuY2lsIG9mIEluZm9ybWF0aW9uIGFuZCBDb21tdW5pY2F0aW9u
IFRlY2hub2xvZ3kxIDAeBgNVBAsTF1FhdGFyIERvbWFpbnMgUmVnaXN0cnkgMRgw
FgYDVQQDEw8ucWEgUFJPRCBFUFAgQ0ExHjAcBgkqhkiG9w0BCQEWD2luZm9AZG9t
YWlucy5xYTAeFw0xMTA4MDMwMzA4NDNaFw0yMTA3MzEwMzA4NDNaMIHNMQswCQYD
VQQGEwJRQTENMAsGA1UECBMERG9oYTENMAsGA1UEBxMERG9oYTFEMEIGA1UEChM7
U3VwcmVtZSBDb3VuY2lsIG9mIEluZm9ybWF0aW9uIGFuZCBDb21tdW5pY2F0aW9u
IFRlY2hub2xvZ3kxIDAeBgNVBAsTF1FhdGFyIERvbWFpbnMgUmVnaXN0cnkgMRgw
FgYDVQQDEw8ucWEgUFJPRCBFUFAgQ0ExHjAcBgkqhkiG9w0BCQEWD2luZm9AZG9t
YWlucy5xYTCBnzANBgkqhkiG9w0BAQEFAAOBjQAwgYkCgYEA4ofu+IjXGhZ0MAZf
pspj+tjhlr7symTaQMd16bG9xeIo4IaP4ad99GxDXMzeLtCO3tuUoc7T4SaNaAIQ
21g90OXFmzDZNqfNOD256jzF7QWj6hgu5rjb773gqIW/nysDOzVAKbB5prbpXJP4
P1g5rgFLc7AHblc+52SXDlXPB90CAwEAAaOCAaswggGnMB0GA1UdDgQWBBRZoFdW
KzbcB9AWV/w5SUs59VHVmTCCAQIGA1UdIwSB+jCB94AUWaBXVis23AfQFlf8OUlL
OfVR1ZmhgdOkgdAwgc0xCzAJBgNVBAYTAlFBMQ0wCwYDVQQIEwREb2hhMQ0wCwYD
VQQHEwREb2hhMUQwQgYDVQQKEztTdXByZW1lIENvdW5jaWwgb2YgSW5mb3JtYXRp
b24gYW5kIENvbW11bmljYXRpb24gVGVjaG5vbG9neTEgMB4GA1UECxMXUWF0YXIg
RG9tYWlucyBSZWdpc3RyeSAxGDAWBgNVBAMTDy5xYSBQUk9EIEVQUCBDQTEeMBwG
CSqGSIb3DQEJARYPaW5mb0Bkb21haW5zLnFhggkAtFb51o4oEPMwDwYDVR0TAQH/
BAUwAwEB/zARBglghkgBhvhCAQEEBAMCAQYwCQYDVR0SBAIwADAlBglghkgBhvhC
AQ0EGBYWUHJvZHVjdGlvbiBDZXJ0aWZpY2F0ZTAaBgNVHREEEzARgQ9pbmZvQGRv
bWFpbnMucWEwDgYDVR0PAQH/BAQDAgEGMA0GCSqGSIb3DQEBBQUAA4GBAJdFz4lp
q9B0Q/CqR7ZEqmQZnjgrHnet+mm8Rsm8N9cFZBdw/Y3wU9Oo12TZTxQt59LObAxv
YbK9iNovRDq/t+lJ1ux0JmLJO3UxjU07+7ezfrXir1zuKR94k8ZbyI9GMmllh1nV
1HGSj90RMRylIbxnMC3s94isHIHCeF/g8/cL
-----END CERTIFICATE-----
