Certificate:
    Data:
        Version: 3 (0x2)
        Serial Number: 4096 (0x1000)
    Signature Algorithm: sha256WithRSAEncryption
        Issuer: C=QA, ST=Doha, L=Doha, O=Communications Regulatory Authority, OU=Qatar Domains Registry, CN=.qa PROD EPP CA/emailAddress=tech@domains.qa
        Validity
            Not Before: Feb 27 10:02:51 2018 GMT
            Not After : Feb 27 10:02:51 2019 GMT
        Subject: C=QA, ST=Doha, L=Doha, O=CRA, OU=QDR, CN=qdr_epp
        Subject Public Key Info:
            Public Key Algorithm: rsaEncryption
                Public-Key: (2048 bit)
                Modulus:
                    00:bc:66:7a:2c:8a:8e:1e:f0:23:f5:c4:ce:4f:5e:
                    ae:2f:f6:b5:df:0c:e3:e5:9a:19:c4:bb:09:f8:55:
                    a8:c4:08:69:51:a5:6b:40:9f:d9:43:3a:ae:d4:c5:
                    09:e9:05:c1:97:ea:2b:a0:9a:fb:45:d1:8f:cc:3f:
                    14:b0:3f:db:11:da:50:b7:5e:a0:8e:ef:9b:ce:ea:
                    ee:f2:00:c8:86:de:5b:55:c2:4e:3a:d6:05:20:bd:
                    fd:61:c1:d4:68:ab:53:51:6d:35:a4:5f:ba:6a:d2:
                    da:d6:65:36:d0:89:84:cf:c7:45:52:b9:c7:d4:44:
                    8c:5e:2b:d1:46:06:dd:fb:b4:fb:fe:00:eb:a2:34:
                    c7:a4:24:db:14:b7:89:9a:ca:24:b5:ea:38:c7:96:
                    88:30:9a:3e:96:91:89:96:3e:45:9e:4f:0b:41:b3:
                    1c:5f:1f:3d:25:d8:2f:ec:85:ac:f1:75:17:64:32:
                    cd:79:02:14:09:ce:cd:08:91:f3:c3:a1:1f:78:32:
                    72:4f:bb:db:b9:1b:5f:22:ed:9a:4f:1e:5b:f8:55:
                    f8:a3:6d:c7:1b:22:52:98:19:de:08:05:e1:63:7a:
                    01:42:20:e9:e7:f3:e3:65:1b:2d:db:da:e1:2b:08:
                    c5:f7:2b:19:5c:c6:56:fe:d6:70:e7:dc:20:1c:43:
                    61:6b
                Exponent: 65537 (0x10001)
        X509v3 extensions:
            X509v3 Basic Constraints: 
                CA:FALSE
            Netscape Comment: 
                OpenSSL Generated Certificate
            X509v3 Subject Key Identifier: 
                F8:53:FB:31:68:3A:47:67:AD:BD:B7:E2:A7:B3:E7:A1:92:A8:61:EA
            X509v3 Authority Key Identifier: 
                keyid:24:23:41:A9:8C:BD:02:23:D6:16:1E:A9:AA:D4:EF:B3:32:B5:50:BE

    Signature Algorithm: sha256WithRSAEncryption
         96:b6:9c:d1:e2:02:45:e1:26:94:10:d3:df:f3:e5:a7:bb:26:
         80:d9:b7:57:a8:9e:75:dd:03:a4:d7:f6:0b:a0:c3:bc:04:5b:
         de:36:fc:84:e3:59:64:f0:f2:6b:40:7b:55:64:74:64:16:60:
         bb:2f:f5:b4:d0:90:ab:31:15:b0:2c:71:17:5c:08:36:b6:5d:
         4d:d2:55:65:31:78:88:6b:b9:d5:7c:51:62:be:c2:db:ab:80:
         d9:fa:16:b8:c5:d7:cb:d5:fb:3b:70:c7:04:7f:3d:76:10:e6:
         d2:78:df:fb:70:4b:b1:bf:fb:04:89:ec:d6:2d:fd:dc:58:9d:
         43:cf
-----BEGIN CERTIFICATE-----
MIIDhDCCAu2gAwIBAgICEAAwDQYJKoZIhvcNAQELBQAwgbQxCzAJBgNVBAYTAlFB
MQ0wCwYDVQQIDAREb2hhMQ0wCwYDVQQHDAREb2hhMSwwKgYDVQQKDCNDb21tdW5p
Y2F0aW9ucyBSZWd1bGF0b3J5IEF1dGhvcml0eTEfMB0GA1UECwwWUWF0YXIgRG9t
YWlucyBSZWdpc3RyeTEYMBYGA1UEAwwPLnFhIFBST0QgRVBQIENBMR4wHAYJKoZI
hvcNAQkBFg90ZWNoQGRvbWFpbnMucWEwHhcNMTgwMjI3MTAwMjUxWhcNMTkwMjI3
MTAwMjUxWjBZMQswCQYDVQQGEwJRQTENMAsGA1UECBMERG9oYTENMAsGA1UEBxME
RG9oYTEMMAoGA1UEChMDQ1JBMQwwCgYDVQQLEwNRRFIxEDAOBgNVBAMMB3Fkcl9l
cHAwggEiMA0GCSqGSIb3DQEBAQUAA4IBDwAwggEKAoIBAQC8Znosio4e8CP1xM5P
Xq4v9rXfDOPlmhnEuwn4VajECGlRpWtAn9lDOq7UxQnpBcGX6iugmvtF0Y/MPxSw
P9sR2lC3XqCO75vO6u7yAMiG3ltVwk461gUgvf1hwdRoq1NRbTWkX7pq0trWZTbQ
iYTPx0VSucfURIxeK9FGBt37tPv+AOuiNMekJNsUt4mayiS16jjHlogwmj6WkYmW
PkWeTwtBsxxfHz0l2C/shazxdRdkMs15AhQJzs0IkfPDoR94MnJPu9u5G18i7ZpP
Hlv4VfijbccbIlKYGd4IBeFjegFCIOnn8+NlGy3b2uErCMX3Kxlcxlb+1nDn3CAc
Q2FrAgMBAAGjezB5MAkGA1UdEwQCMAAwLAYJYIZIAYb4QgENBB8WHU9wZW5TU0wg
R2VuZXJhdGVkIENlcnRpZmljYXRlMB0GA1UdDgQWBBT4U/sxaDpHZ629t+Kns+eh
kqhh6jAfBgNVHSMEGDAWgBQkI0GpjL0CI9YWHqmq1O+zMrVQvjANBgkqhkiG9w0B
AQsFAAOBgQCWtpzR4gJF4SaUENPf8+WnuyaA2bdXqJ513QOk1/YLoMO8BFveNvyE
41lk8PJrQHtVZHRkFmC7L/W00JCrMRWwLHEXXAg2tl1N0lVlMXiIa7nVfFFivsLb
q4DZ+ha4xdfL1fs7cMcEfz12EObSeN/7cEuxv/sEiezWLf3cWJ1Dzw==
-----END CERTIFICATE-----
-----BEGIN CERTIFICATE-----
MIIDODCCAqGgAwIBAgIJANprf15hb9WFMA0GCSqGSIb3DQEBCwUAMIG0MQswCQYD
VQQGEwJRQTENMAsGA1UECAwERG9oYTENMAsGA1UEBwwERG9oYTEsMCoGA1UECgwj
Q29tbXVuaWNhdGlvbnMgUmVndWxhdG9yeSBBdXRob3JpdHkxHzAdBgNVBAsMFlFh
dGFyIERvbWFpbnMgUmVnaXN0cnkxGDAWBgNVBAMMDy5xYSBQUk9EIEVQUCBDQTEe
MBwGCSqGSIb3DQEJARYPdGVjaEBkb21haW5zLnFhMB4XDTE4MDIyNjE4MDAyOFoX
DTI4MDIyNjE4MDAyOFowgbQxCzAJBgNVBAYTAlFBMQ0wCwYDVQQIDAREb2hhMQ0w
CwYDVQQHDAREb2hhMSwwKgYDVQQKDCNDb21tdW5pY2F0aW9ucyBSZWd1bGF0b3J5
IEF1dGhvcml0eTEfMB0GA1UECwwWUWF0YXIgRG9tYWlucyBSZWdpc3RyeTEYMBYG
A1UEAwwPLnFhIFBST0QgRVBQIENBMR4wHAYJKoZIhvcNAQkBFg90ZWNoQGRvbWFp
bnMucWEwgZ8wDQYJKoZIhvcNAQEBBQADgY0AMIGJAoGBANX0DEe6mb5R7SsEpXQl
4m5Aj++2gUjzUkeyv8Ew5jQ4378ibxwhqWmxm0F2Es98Vd6DRXftRJ/GRg2gT4Xt
4GKC5KFHiipq2fCzyJxagIPkQtowN5dM2hBsxaIzyrDD7D128mpkO7lRsAl9kxR3
E4GULzjocB8SROp/0b1afCknAgMBAAGjUDBOMB0GA1UdDgQWBBQkI0GpjL0CI9YW
Hqmq1O+zMrVQvjAfBgNVHSMEGDAWgBQkI0GpjL0CI9YWHqmq1O+zMrVQvjAMBgNV
HRMEBTADAQH/MA0GCSqGSIb3DQEBCwUAA4GBAL7EctS+fLl1OzEe37i+XeGs6mm4
4DwBsHdcBPAZu9cK+ZJu+ytvrT/QLygdBnxQW9LhlSqE0VrX3dlTYgRJJMOZ7tLT
FD/XMxT4iEInK4sboCoLFfpiLTBxgOP8hSBrl/nmT7Gtoa++lARGP1KSjIOonHaY
wYm4vCpfXgv82BEV
-----END CERTIFICATE-----
